; ModuleID = '24/2423.c'
source_filename = "24/2423.c"
target datalayout = "e-m:e-p270:32:32-p271:32:32-p272:64:64-i64:64-f80:128-n8:16:32:64-S128"
target triple = "x86_64-pc-linux-gnu"

@.str = private unnamed_addr constant [3 x i8] c"%c\00", align 1
@.str.1 = private unnamed_addr constant [3 x i8] c"%s\00", align 1
@.str.2 = private unnamed_addr constant [2 x i8] c"\0A\00", align 1

; Function Attrs: noinline nounwind uwtable
define dso_local i32 @main() #0 {
  %1 = alloca i32, align 4
  %2 = alloca [30 x i8], align 16
  %3 = alloca [30 x i8], align 16
  %4 = alloca [30 x i8], align 16
  %5 = alloca i32, align 4
  %6 = alloca i32, align 4
  %7 = alloca i32, align 4
  store i32 0, i32* %1, align 4
  store i32 0, i32* %5, align 4
  store i32 40, i32* %6, align 4
  store i32 0, i32* %7, align 4
  br label %8

8:                                                ; preds = %91, %0
  %9 = load i32, i32* %7, align 4
  %10 = sext i32 %9 to i64
  %11 = getelementptr inbounds [30 x i8], [30 x i8]* %2, i64 0, i64 %10
  %12 = call i32 (i8*, ...) @__isoc99_scanf(i8* getelementptr inbounds ([3 x i8], [3 x i8]* @.str, i64 0, i64 0), i8* %11)
  %13 = load i32, i32* %7, align 4
  %14 = sext i32 %13 to i64
  %15 = getelementptr inbounds [30 x i8], [30 x i8]* %2, i64 0, i64 %14
  %16 = load i8, i8* %15, align 1
  %17 = sext i8 %16 to i32
  %18 = icmp eq i32 %17, 10
  br i1 %18, label %26, label %19

19:                                               ; preds = %8
  %20 = load i32, i32* %7, align 4
  %21 = sext i32 %20 to i64
  %22 = getelementptr inbounds [30 x i8], [30 x i8]* %2, i64 0, i64 %21
  %23 = load i8, i8* %22, align 1
  %24 = sext i8 %23 to i32
  %25 = icmp eq i32 %24, 0
  br i1 %25, label %26, label %51

26:                                               ; preds = %19, %8
  %27 = load i32, i32* %7, align 4
  %28 = sext i32 %27 to i64
  %29 = getelementptr inbounds [30 x i8], [30 x i8]* %2, i64 0, i64 %28
  store i8 0, i8* %29, align 1
  %30 = load i32, i32* %7, align 4
  %31 = load i32, i32* %5, align 4
  %32 = icmp sgt i32 %30, %31
  br i1 %32, label %33, label %38

33:                                               ; preds = %26
  %34 = load i32, i32* %7, align 4
  store i32 %34, i32* %5, align 4
  %35 = getelementptr inbounds [30 x i8], [30 x i8]* %3, i64 0, i64 0
  %36 = getelementptr inbounds [30 x i8], [30 x i8]* %2, i64 0, i64 0
  %37 = call i8* @strcpy(i8* %35, i8* %36) #3
  br label %38

38:                                               ; preds = %33, %26
  %39 = load i32, i32* %7, align 4
  %40 = load i32, i32* %6, align 4
  %41 = icmp slt i32 %39, %40
  br i1 %41, label %42, label %50

42:                                               ; preds = %38
  %43 = load i32, i32* %7, align 4
  %44 = icmp sgt i32 %43, 0
  br i1 %44, label %45, label %50

45:                                               ; preds = %42
  %46 = load i32, i32* %7, align 4
  store i32 %46, i32* %6, align 4
  %47 = getelementptr inbounds [30 x i8], [30 x i8]* %4, i64 0, i64 0
  %48 = getelementptr inbounds [30 x i8], [30 x i8]* %2, i64 0, i64 0
  %49 = call i8* @strcpy(i8* %47, i8* %48) #3
  br label %50

50:                                               ; preds = %45, %42, %38
  br label %94

51:                                               ; preds = %19
  %52 = load i32, i32* %7, align 4
  %53 = sext i32 %52 to i64
  %54 = getelementptr inbounds [30 x i8], [30 x i8]* %2, i64 0, i64 %53
  %55 = load i8, i8* %54, align 1
  %56 = sext i8 %55 to i32
  %57 = icmp eq i32 %56, 32
  br i1 %57, label %65, label %58

58:                                               ; preds = %51
  %59 = load i32, i32* %7, align 4
  %60 = sext i32 %59 to i64
  %61 = getelementptr inbounds [30 x i8], [30 x i8]* %2, i64 0, i64 %60
  %62 = load i8, i8* %61, align 1
  %63 = sext i8 %62 to i32
  %64 = icmp eq i32 %63, 44
  br i1 %64, label %65, label %90

65:                                               ; preds = %58, %51
  %66 = load i32, i32* %7, align 4
  %67 = sext i32 %66 to i64
  %68 = getelementptr inbounds [30 x i8], [30 x i8]* %2, i64 0, i64 %67
  store i8 0, i8* %68, align 1
  %69 = load i32, i32* %7, align 4
  %70 = load i32, i32* %5, align 4
  %71 = icmp sgt i32 %69, %70
  br i1 %71, label %72, label %77

72:                                               ; preds = %65
  %73 = load i32, i32* %7, align 4
  store i32 %73, i32* %5, align 4
  %74 = getelementptr inbounds [30 x i8], [30 x i8]* %3, i64 0, i64 0
  %75 = getelementptr inbounds [30 x i8], [30 x i8]* %2, i64 0, i64 0
  %76 = call i8* @strcpy(i8* %74, i8* %75) #3
  br label %77

77:                                               ; preds = %72, %65
  %78 = load i32, i32* %7, align 4
  %79 = load i32, i32* %6, align 4
  %80 = icmp slt i32 %78, %79
  br i1 %80, label %81, label %89

81:                                               ; preds = %77
  %82 = load i32, i32* %7, align 4
  %83 = icmp sgt i32 %82, 0
  br i1 %83, label %84, label %89

84:                                               ; preds = %81
  %85 = load i32, i32* %7, align 4
  store i32 %85, i32* %6, align 4
  %86 = getelementptr inbounds [30 x i8], [30 x i8]* %4, i64 0, i64 0
  %87 = getelementptr inbounds [30 x i8], [30 x i8]* %2, i64 0, i64 0
  %88 = call i8* @strcpy(i8* %86, i8* %87) #3
  br label %89

89:                                               ; preds = %84, %81, %77
  store i32 -1, i32* %7, align 4
  br label %90

90:                                               ; preds = %89, %58
  br label %91

91:                                               ; preds = %90
  %92 = load i32, i32* %7, align 4
  %93 = add nsw i32 %92, 1
  store i32 %93, i32* %7, align 4
  br label %8

94:                                               ; preds = %50
  %95 = getelementptr inbounds [30 x i8], [30 x i8]* %3, i64 0, i64 0
  %96 = call i32 (i8*, ...) @printf(i8* getelementptr inbounds ([3 x i8], [3 x i8]* @.str.1, i64 0, i64 0), i8* %95)
  %97 = call i32 (i8*, ...) @printf(i8* getelementptr inbounds ([2 x i8], [2 x i8]* @.str.2, i64 0, i64 0))
  %98 = getelementptr inbounds [30 x i8], [30 x i8]* %4, i64 0, i64 0
  %99 = call i32 (i8*, ...) @printf(i8* getelementptr inbounds ([3 x i8], [3 x i8]* @.str.1, i64 0, i64 0), i8* %98)
  %100 = load i32, i32* %1, align 4
  ret i32 %100
}

declare dso_local i32 @__isoc99_scanf(i8*, ...) #1

; Function Attrs: nounwind
declare dso_local i8* @strcpy(i8*, i8*) #2

declare dso_local i32 @printf(i8*, ...) #1


!llvm.module.flags = !{!0}
!llvm.ident = !{!1}

!0 = !{i32 1, !"wchar_size", i32 4}
!1 = !{!"clang version 10.0.0-4ubuntu1 "}
